target datalayout = "e-m:e-p270:32:32-p271:32:32-p272:64:64-i64:64-i128:128-f80:128-n8:16:32:64-S128"
target triple = "x86_64-pc-linux-gnu"

%struct.Node = type { i32 }
%struct.AlterDomainStmt = type { i32, i8, ptr, ptr, ptr, i32, i8 }

@.str.326 = private unnamed_addr constant [1 x i8] zeroinitializer, align 1

; Function Attrs: inlinehint nounwind willreturn memory(read) uwtable
define available_externally i32 @atoi(ptr noundef nonnull %0) #6 {
  %2 = alloca ptr, align 8
  store ptr %0, ptr %2, align 8
  %3 = load ptr, ptr %2, align 8
  %4 = call i64 @strtol(ptr noundef %3, ptr noundef null, i32 noundef 10) #9
  %5 = trunc i64 %4 to i32
  ret i32 %5
}

; Function Attrs: nounwind uwtable
define internal ptr @nullable_string(ptr noundef %0, i32 noundef %1) #0 {
  %3 = alloca ptr, align 8
  %4 = alloca ptr, align 8
  %5 = alloca i32, align 4
  store ptr %0, ptr %4, align 8
  store i32 %1, ptr %5, align 4
  %6 = load i32, ptr %5, align 4
  %7 = icmp eq i32 %6, 0
  br i1 %7, label %8, label %9

8:                                                ; preds = %2
  store ptr null, ptr %3, align 8
  br label %30

9:                                                ; preds = %2
  %10 = load i32, ptr %5, align 4
  %11 = icmp eq i32 %10, 2
  br i1 %11, label %12, label %26

12:                                               ; preds = %9
  %13 = load ptr, ptr %4, align 8
  %14 = getelementptr inbounds i8, ptr %13, i64 0
  %15 = load i8, ptr %14, align 1
  %16 = sext i8 %15 to i32
  %17 = icmp eq i32 %16, 34
  br i1 %17, label %18, label %26

18:                                               ; preds = %12
  %19 = load ptr, ptr %4, align 8
  %20 = getelementptr inbounds i8, ptr %19, i64 1
  %21 = load i8, ptr %20, align 1
  %22 = sext i8 %21 to i32
  %23 = icmp eq i32 %22, 34
  br i1 %23, label %24, label %26

24:                                               ; preds = %18
  %25 = call ptr @pstrdup(ptr noundef @.str.326)
  store ptr %25, ptr %3, align 8
  br label %30

26:                                               ; preds = %18, %12, %9
  %27 = load ptr, ptr %4, align 8
  %28 = load i32, ptr %5, align 4
  %29 = call ptr @debackslash(ptr noundef %27, i32 noundef %28)
  store ptr %29, ptr %3, align 8
  br label %30

30:                                               ; preds = %26, %24, %8
  %31 = load ptr, ptr %3, align 8
  ret ptr %31
}

; Function Attrs: inlinehint nounwind uwtable
define internal ptr @newNode(i64 noundef %0, i32 noundef %1) #7 {
  %3 = alloca i64, align 8
  %4 = alloca i32, align 4
  %5 = alloca ptr, align 8
  store i64 %0, ptr %3, align 8
  store i32 %1, ptr %4, align 4
  call void @llvm.lifetime.start.p0(i64 8, ptr %5) #9
  %6 = load i64, ptr %3, align 8
  %7 = call ptr @palloc0(i64 noundef %6)
  store ptr %7, ptr %5, align 8
  %8 = load i32, ptr %4, align 4
  %9 = load ptr, ptr %5, align 8
  %10 = getelementptr inbounds nuw %struct.Node, ptr %9, i32 0, i32 0
  store i32 %8, ptr %10, align 4
  %11 = load ptr, ptr %5, align 8
  call void @llvm.lifetime.end.p0(i64 8, ptr %5) #9
  ret ptr %11
}

; Function Attrs: nounwind uwtable
define internal ptr @_readAlterDomainStmt() #0 {
  %1 = alloca ptr, align 8
  %2 = alloca ptr, align 8
  %3 = alloca i32, align 4
  call void @llvm.lifetime.start.p0(i64 8, ptr %1) #9
  %4 = call ptr @newNode(i64 noundef 40, i32 noundef 150)
  store ptr %4, ptr %1, align 8
  call void @llvm.lifetime.start.p0(i64 8, ptr %2) #9
  call void @llvm.lifetime.start.p0(i64 4, ptr %3) #9
  %5 = call ptr @pg_strtok(ptr noundef %3)
  store ptr %5, ptr %2, align 8
  %6 = call ptr @pg_strtok(ptr noundef %3)
  store ptr %6, ptr %2, align 8
  %7 = load i32, ptr %3, align 4
  %8 = icmp eq i32 %7, 0
  br i1 %8, label %9, label %10

9:                                                ; preds = %0
  br label %28

10:                                               ; preds = %0
  %11 = load ptr, ptr %2, align 8
  %12 = getelementptr inbounds i8, ptr %11, i64 0
  %13 = load i8, ptr %12, align 1
  %14 = sext i8 %13 to i32
  %15 = icmp eq i32 %14, 92
  br i1 %15, label %16, label %21

16:                                               ; preds = %10
  %17 = load ptr, ptr %2, align 8
  %18 = getelementptr inbounds i8, ptr %17, i64 1
  %19 = load i8, ptr %18, align 1
  %20 = sext i8 %19 to i32
  br label %26

21:                                               ; preds = %10
  %22 = load ptr, ptr %2, align 8
  %23 = getelementptr inbounds i8, ptr %22, i64 0
  %24 = load i8, ptr %23, align 1
  %25 = sext i8 %24 to i32
  br label %26

26:                                               ; preds = %21, %16
  %27 = phi i32 [ %20, %16 ], [ %25, %21 ]
  br label %28

28:                                               ; preds = %26, %9
  %29 = phi i32 [ 0, %9 ], [ %27, %26 ]
  %30 = trunc i32 %29 to i8
  %31 = load ptr, ptr %1, align 8
  %32 = getelementptr inbounds nuw %struct.AlterDomainStmt, ptr %31, i32 0, i32 1
  store i8 %30, ptr %32, align 4
  %33 = call ptr @pg_strtok(ptr noundef %3)
  store ptr %33, ptr %2, align 8
  %34 = call ptr @nodeRead(ptr noundef null, i32 noundef 0)
  %35 = load ptr, ptr %1, align 8
  %36 = getelementptr inbounds nuw %struct.AlterDomainStmt, ptr %35, i32 0, i32 2
  store ptr %34, ptr %36, align 8
  %37 = call ptr @pg_strtok(ptr noundef %3)
  store ptr %37, ptr %2, align 8
  %38 = call ptr @pg_strtok(ptr noundef %3)
  store ptr %38, ptr %2, align 8
  %39 = load ptr, ptr %2, align 8
  %40 = load i32, ptr %3, align 4
  %41 = call ptr @nullable_string(ptr noundef %39, i32 noundef %40)
  %42 = load ptr, ptr %1, align 8
  %43 = getelementptr inbounds nuw %struct.AlterDomainStmt, ptr %42, i32 0, i32 3
  store ptr %41, ptr %43, align 8
  %44 = call ptr @pg_strtok(ptr noundef %3)
  store ptr %44, ptr %2, align 8
  %45 = call ptr @nodeRead(ptr noundef null, i32 noundef 0)
  %46 = load ptr, ptr %1, align 8
  %47 = getelementptr inbounds nuw %struct.AlterDomainStmt, ptr %46, i32 0, i32 4
  store ptr %45, ptr %47, align 8
  %48 = call ptr @pg_strtok(ptr noundef %3)
  store ptr %48, ptr %2, align 8
  %49 = call ptr @pg_strtok(ptr noundef %3)
  store ptr %49, ptr %2, align 8
  %50 = load ptr, ptr %2, align 8
  %51 = call i32 @atoi(ptr noundef %50) #11
  %52 = load ptr, ptr %1, align 8
  %53 = getelementptr inbounds nuw %struct.AlterDomainStmt, ptr %52, i32 0, i32 5
  store i32 %51, ptr %53, align 8
  %54 = call ptr @pg_strtok(ptr noundef %3)
  store ptr %54, ptr %2, align 8
  %55 = call ptr @pg_strtok(ptr noundef %3)
  store ptr %55, ptr %2, align 8
  %56 = load ptr, ptr %2, align 8
  %57 = load i8, ptr %56, align 1
  %58 = sext i8 %57 to i32
  %59 = icmp eq i32 %58, 116
  %60 = select i1 %59, i32 1, i32 0
  %61 = icmp ne i32 %60, 0
  %62 = load ptr, ptr %1, align 8
  %63 = getelementptr inbounds nuw %struct.AlterDomainStmt, ptr %62, i32 0, i32 6
  %64 = zext i1 %61 to i8
  store i8 %64, ptr %63, align 4
  %65 = load ptr, ptr %1, align 8
  call void @llvm.lifetime.end.p0(i64 4, ptr %3) #9
  call void @llvm.lifetime.end.p0(i64 8, ptr %2) #9
  call void @llvm.lifetime.end.p0(i64 8, ptr %1) #9
  ret ptr %65
}