; Function Attrs: nounwind uwtable
define internal fastcc noundef ptr @_readAlterDomainStmt() unnamed_addr #0 {
  %1 = alloca i32, align 4
  %2 = tail call noundef ptr @palloc0(i64 noundef 40) #10
  store i32 150, ptr %2, align 4
  call void @llvm.lifetime.start.p0(i64 4, ptr nonnull %1) #10
  %3 = call ptr @pg_strtok(ptr noundef nonnull %1) #10
  %4 = call ptr @pg_strtok(ptr noundef nonnull %1) #10
  %5 = load i32, ptr %1, align 4
  %6 = icmp eq i32 %5, 0
  br i1 %6, label %13, label %7

7:                                                ; preds = %0
  %8 = load i8, ptr %4, align 1
  %9 = icmp eq i8 %8, 92
  br i1 %9, label %10, label %13

10:                                               ; preds = %7
  %11 = getelementptr inbounds nuw i8, ptr %4, i64 1
  %12 = load i8, ptr %11, align 1
  br label %13

13:                                               ; preds = %7, %10, %0
  %14 = phi i8 [ 0, %0 ], [ %12, %10 ], [ %8, %7 ]
  %15 = getelementptr inbounds nuw i8, ptr %2, i64 4
  store i8 %14, ptr %15, align 4
  %16 = call ptr @pg_strtok(ptr noundef nonnull %1) #10
  %17 = call ptr @nodeRead(ptr noundef null, i32 noundef 0) #10
  %18 = getelementptr inbounds nuw i8, ptr %2, i64 8
  store ptr %17, ptr %18, align 8
  %19 = call ptr @pg_strtok(ptr noundef nonnull %1) #10
  %20 = call ptr @pg_strtok(ptr noundef nonnull %1) #10
  %21 = load i32, ptr %1, align 4
  switch i32 %21, label %31 [
    i32 0, label %nullable_string.exit
    i32 2, label %22
  ]

22:                                               ; preds = %13
  %23 = load i8, ptr %20, align 1
  %24 = icmp eq i8 %23, 34
  br i1 %24, label %25, label %31

25:                                               ; preds = %22
  %26 = getelementptr inbounds nuw i8, ptr %20, i64 1
  %27 = load i8, ptr %26, align 1
  %28 = icmp eq i8 %27, 34
  br i1 %28, label %29, label %31

29:                                               ; preds = %25
  %30 = call ptr @pstrdup(ptr noundef nonnull @.str.326) #10
  br label %nullable_string.exit

31:                                               ; preds = %25, %22, %13
  %32 = call ptr @debackslash(ptr noundef %20, i32 noundef %21) #10
  br label %nullable_string.exit

nullable_string.exit:                             ; preds = %13, %29, %31
  %.0.i = phi ptr [ %30, %29 ], [ %32, %31 ], [ null, %13 ]
  %33 = getelementptr inbounds nuw i8, ptr %2, i64 16
  store ptr %.0.i, ptr %33, align 8
  %34 = call ptr @pg_strtok(ptr noundef nonnull %1) #10
  %35 = call ptr @nodeRead(ptr noundef null, i32 noundef 0) #10
  %36 = getelementptr inbounds nuw i8, ptr %2, i64 24
  store ptr %35, ptr %36, align 8
  %37 = call ptr @pg_strtok(ptr noundef nonnull %1) #10
  %38 = call ptr @pg_strtok(ptr noundef nonnull %1) #10
  %39 = call i64 @strtol(ptr noundef nonnull captures(none) %38, ptr noundef null, i32 noundef 10) #10
  %40 = trunc i64 %39 to i32
  %41 = getelementptr inbounds nuw i8, ptr %2, i64 32
  store i32 %40, ptr %41, align 8
  %42 = call ptr @pg_strtok(ptr noundef nonnull %1) #10
  %43 = call ptr @pg_strtok(ptr noundef nonnull %1) #10
  %44 = load i8, ptr %43, align 1
  %45 = icmp eq i8 %44, 116
  %46 = getelementptr inbounds nuw i8, ptr %2, i64 36
  %47 = zext i1 %45 to i8
  store i8 %47, ptr %46, align 4
  call void @llvm.lifetime.end.p0(i64 4, ptr nonnull %1) #10
  ret ptr %2
}